400530:	31 ed                           	xor	ebp, ebp		
400532:	49 89 d1                        	mov	r9, rdx		
400535:	5e                              	pop	rsi		
400536:	48 89 e2                        	mov	rdx, rsp		
400539:	48 83 e4 f0                     	and	rsp, 0xfffffffffffffff0		
40053d:	50                              	push	rax		
40053e:	54                              	push	rsp		
40053f:	49 c7 c0 f0 07 40 00            	mov	r8, 0x4007f0		
400546:	48 c7 c1 80 07 40 00            	mov	rcx, 0x400780		
40054d:	48 c7 c7 e0 06 40 00            	mov	rdi, 0x4006e0		
400554:	ff 15 96 0a 20 00               	call	qword ptr [rip + 0x200a96]		
40055a:	f4                              	hlt			
40055b:	0f 1f 44 00 00                  	nop	dword ptr [rax + rax]		
400560:	f3 c3                           	ret			
400562:	66 2e 0f 1f 84 00 00 00 00 00   	nop	word ptr cs:[rax + rax]		
40056c:	0f 1f 40 00                     	nop	dword ptr [rax]		
400570:	55                              	push	rbp		
400571:	b8 50 10 60 00                  	mov	eax, 0x601050		
400576:	48 3d 50 10 60 00               	cmp	rax, 0x601050		
40057c:	48 89 e5                        	mov	rbp, rsp		
40057f:	74 17                           	je	0x400598		
400581:	b8 00 00 00 00                  	mov	eax, 0		
400586:	48 85 c0                        	test	rax, rax		
400589:	74 0d                           	je	0x400598		
40058b:	5d                              	pop	rbp		
40058c:	bf 50 10 60 00                  	mov	edi, 0x601050		
400591:	ff e0                           	jmp	rax		
400593:	0f 1f 44 00 00                  	nop	dword ptr [rax + rax]		
400598:	5d                              	pop	rbp		
400599:	c3                              	ret			
40059a:	66 0f 1f 44 00 00               	nop	word ptr [rax + rax]		
4005a0:	be 50 10 60 00                  	mov	esi, 0x601050		
4005a5:	55                              	push	rbp		
4005a6:	48 81 ee 50 10 60 00            	sub	rsi, 0x601050		
4005ad:	48 89 e5                        	mov	rbp, rsp		
4005b0:	48 c1 fe 03                     	sar	rsi, 3		
4005b4:	48 89 f0                        	mov	rax, rsi		
4005b7:	48 c1 e8 3f                     	shr	rax, 0x3f		
4005bb:	48 01 c6                        	add	rsi, rax		
4005be:	48 d1 fe                        	sar	rsi, 1		
4005c1:	74 15                           	je	0x4005d8		
4005c3:	b8 00 00 00 00                  	mov	eax, 0		
4005c8:	48 85 c0                        	test	rax, rax		
4005cb:	74 0b                           	je	0x4005d8		
4005cd:	5d                              	pop	rbp		
4005ce:	bf 50 10 60 00                  	mov	edi, 0x601050		
4005d3:	ff e0                           	jmp	rax		
4005d5:	0f 1f 00                        	nop	dword ptr [rax]		
4005d8:	5d                              	pop	rbp		
4005d9:	c3                              	ret			
4005da:	66 0f 1f 44 00 00               	nop	word ptr [rax + rax]		
4005e0:	80 3d 69 0a 20 00 00            	cmp	byte ptr [rip + 0x200a69], 0		
4005e7:	75 17                           	jne	0x400600		
4005e9:	55                              	push	rbp		
4005ea:	48 89 e5                        	mov	rbp, rsp		
4005ed:	e8 7e ff ff ff                  	call	0x400570		
4005f2:	c6 05 57 0a 20 00 01            	mov	byte ptr [rip + 0x200a57], 1		
4005f9:	5d                              	pop	rbp		
4005fa:	c3                              	ret			
4005fb:	0f 1f 44 00 00                  	nop	dword ptr [rax + rax]		
400600:	f3 c3                           	ret			
400602:	0f 1f 40 00                     	nop	dword ptr [rax]		
400606:	66 2e 0f 1f 84 00 00 00 00 00   	nop	word ptr cs:[rax + rax]		
400610:	55                              	push	rbp		
400611:	48 89 e5                        	mov	rbp, rsp		
400614:	5d                              	pop	rbp		
400615:	eb 89                           	jmp	0x4005a0		
400617:	66 0f 1f 84 00 00 00 00 00      	nop	word ptr [rax + rax]		
400620:	55                              	push	rbp		
400621:	48 89 e5                        	mov	rbp, rsp		
400624:	48 83 ec 20                     	sub	rsp, 0x20		
400628:	48 89 7d f8                     	mov	qword ptr [rbp - 8], rdi		
40062c:	c7 45 f4 00 00 00 00            	mov	dword ptr [rbp - 0xc], 0		
400633:	48 8b 7d f8                     	mov	rdi, qword ptr [rbp - 8]		
400637:	0f be 07                        	movsx	eax, byte ptr [rdi]		
40063a:	83 f8 62                        	cmp	eax, 0x62		
40063d:	0f 85 09 00 00 00               	jne	0x40064c		
400643:	8b 45 f4                        	mov	eax, dword ptr [rbp - 0xc]		
400646:	83 c0 01                        	add	eax, 1		
400649:	89 45 f4                        	mov	dword ptr [rbp - 0xc], eax		
40064c:	48 8b 45 f8                     	mov	rax, qword ptr [rbp - 8]		
400650:	0f be 48 01                     	movsx	ecx, byte ptr [rax + 1]		
400654:	83 f9 61                        	cmp	ecx, 0x61		
400657:	0f 85 09 00 00 00               	jne	0x400666		
40065d:	8b 45 f4                        	mov	eax, dword ptr [rbp - 0xc]		
400660:	83 c0 01                        	add	eax, 1		
400663:	89 45 f4                        	mov	dword ptr [rbp - 0xc], eax		
400666:	48 8b 45 f8                     	mov	rax, qword ptr [rbp - 8]		
40066a:	0f be 48 02                     	movsx	ecx, byte ptr [rax + 2]		
40066e:	83 f9 64                        	cmp	ecx, 0x64		
400671:	0f 85 09 00 00 00               	jne	0x400680		
400677:	8b 45 f4                        	mov	eax, dword ptr [rbp - 0xc]		
40067a:	83 c0 01                        	add	eax, 1		
40067d:	89 45 f4                        	mov	dword ptr [rbp - 0xc], eax		
400680:	48 8b 45 f8                     	mov	rax, qword ptr [rbp - 8]		
400684:	0f be 48 03                     	movsx	ecx, byte ptr [rax + 3]		
400688:	83 f9 21                        	cmp	ecx, 0x21		
40068b:	0f 85 09 00 00 00               	jne	0x40069a		
400691:	8b 45 f4                        	mov	eax, dword ptr [rbp - 0xc]		
400694:	83 c0 01                        	add	eax, 1		
400697:	89 45 f4                        	mov	dword ptr [rbp - 0xc], eax		
40069a:	83 7d f4 04                     	cmp	dword ptr [rbp - 0xc], 4		
40069e:	0f 85 21 00 00 00               	jne	0x4006c5		
4006a4:	48 bf 04 08 40 00 00 00 00 00   	movabs	rdi, 0x400804		
4006ae:	b0 00                           	mov	al, 0		
4006b0:	e8 5b fe ff ff                  	call	0x400510		
4006b5:	bf 0b 00 00 00                  	mov	edi, 0xb		
4006ba:	89 45 f0                        	mov	dword ptr [rbp - 0x10], eax		
4006bd:	e8 1e fe ff ff                  	call	0x4004e0		
4006c2:	89 45 ec                        	mov	dword ptr [rbp - 0x14], eax		
4006c5:	48 bf 0a 08 40 00 00 00 00 00   	movabs	rdi, 0x40080a		
4006cf:	b0 00                           	mov	al, 0		
4006d1:	e8 3a fe ff ff                  	call	0x400510		
4006d6:	89 45 e8                        	mov	dword ptr [rbp - 0x18], eax		
4006d9:	48 83 c4 20                     	add	rsp, 0x20		
4006dd:	5d                              	pop	rbp		
4006de:	c3                              	ret			
4006df:	90                              	nop			
4006e0:	55                              	push	rbp		
4006e1:	48 89 e5                        	mov	rbp, rsp		
4006e4:	48 83 ec 30                     	sub	rsp, 0x30		
4006e8:	48 b8 11 08 40 00 00 00 00 00   	movabs	rax, 0x400811		
4006f2:	c7 45 fc 00 00 00 00            	mov	dword ptr [rbp - 4], 0		
4006f9:	89 7d f8                        	mov	dword ptr [rbp - 8], edi		
4006fc:	48 89 75 f0                     	mov	qword ptr [rbp - 0x10], rsi		
400700:	48 c7 45 e0 00 00 00 00         	mov	qword ptr [rbp - 0x20], 0		
400708:	48 8b 75 f0                     	mov	rsi, qword ptr [rbp - 0x10]		
40070c:	48 8b 7e 08                     	mov	rdi, qword ptr [rsi + 8]		
400710:	48 89 c6                        	mov	rsi, rax		
400713:	e8 08 fe ff ff                  	call	0x400520		
400718:	48 89 45 e0                     	mov	qword ptr [rbp - 0x20], rax		
40071c:	48 83 7d e0 00                  	cmp	qword ptr [rbp - 0x20], 0		
400721:	0f 84 36 00 00 00               	je	0x40075d		
400727:	48 be 13 08 40 00 00 00 00 00   	movabs	rsi, 0x400813		
400731:	48 8d 55 eb                     	lea	rdx, qword ptr [rbp - 0x15]		
400735:	48 8b 7d e0                     	mov	rdi, qword ptr [rbp - 0x20]		
400739:	b0 00                           	mov	al, 0		
40073b:	e8 b0 fd ff ff                  	call	0x4004f0		
400740:	48 8d 7d eb                     	lea	rdi, qword ptr [rbp - 0x15]		
400744:	89 45 dc                        	mov	dword ptr [rbp - 0x24], eax		
400747:	e8 d4 fe ff ff                  	call	0x400620		
40074c:	48 8b 7d e0                     	mov	rdi, qword ptr [rbp - 0x20]		
400750:	e8 ab fd ff ff                  	call	0x400500		
400755:	89 45 d8                        	mov	dword ptr [rbp - 0x28], eax		
400758:	e9 14 00 00 00                  	jmp	0x400771		
40075d:	48 bf 17 08 40 00 00 00 00 00   	movabs	rdi, 0x400817		
400767:	b0 00                           	mov	al, 0		
400769:	e8 a2 fd ff ff                  	call	0x400510		
40076e:	89 45 d4                        	mov	dword ptr [rbp - 0x2c], eax		
400771:	31 c0                           	xor	eax, eax		
400773:	48 83 c4 30                     	add	rsp, 0x30		
400777:	5d                              	pop	rbp		
400778:	c3                              	ret			
400779:	0f 1f 80 00 00 00 00            	nop	dword ptr [rax]		
400780:	41 57                           	push	r15		
400782:	41 56                           	push	r14		
400784:	49 89 d7                        	mov	r15, rdx		
400787:	41 55                           	push	r13		
400789:	41 54                           	push	r12		
40078b:	4c 8d 25 7e 06 20 00            	lea	r12, qword ptr [rip + 0x20067e]		
400792:	55                              	push	rbp		
400793:	48 8d 2d 7e 06 20 00            	lea	rbp, qword ptr [rip + 0x20067e]		
40079a:	53                              	push	rbx		
40079b:	41 89 fd                        	mov	r13d, edi		
40079e:	49 89 f6                        	mov	r14, rsi		
4007a1:	4c 29 e5                        	sub	rbp, r12		
4007a4:	48 83 ec 08                     	sub	rsp, 8		
4007a8:	48 c1 fd 03                     	sar	rbp, 3		
4007ac:	e8 ff fc ff ff                  	call	0x4004b0		
4007b1:	48 85 ed                        	test	rbp, rbp		
4007b4:	74 20                           	je	0x4007d6		
4007b6:	31 db                           	xor	ebx, ebx		
4007b8:	0f 1f 84 00 00 00 00 00         	nop	dword ptr [rax + rax]		
4007c0:	4c 89 fa                        	mov	rdx, r15		
4007c3:	4c 89 f6                        	mov	rsi, r14		
4007c6:	44 89 ef                        	mov	edi, r13d		
4007c9:	41 ff 14 dc                     	call	qword ptr [r12 + rbx*8]		
4007cd:	48 83 c3 01                     	add	rbx, 1		
4007d1:	48 39 dd                        	cmp	rbp, rbx		
4007d4:	75 ea                           	jne	0x4007c0		
4007d6:	48 83 c4 08                     	add	rsp, 8		
4007da:	5b                              	pop	rbx		
4007db:	5d                              	pop	rbp		
4007dc:	41 5c                           	pop	r12		
4007de:	41 5d                           	pop	r13		
4007e0:	41 5e                           	pop	r14		
4007e2:	41 5f                           	pop	r15		
4007e4:	c3                              	ret			
4007e5:	90                              	nop			
4007e6:	66 2e 0f 1f 84 00 00 00 00 00   	nop	word ptr cs:[rax + rax]		
4007f0:	f3 c3                           	ret	